target datalayout = "e-m:e-p270:32:32-p271:32:32-p272:64:64-i64:64-i128:128-f80:128-n8:16:32:64-S128"
target triple = "x86_64-pc-linux-gnu"

%"struct.zmq::socks_greeting_t" = type { [255 x i8], i64 }
%"class.zmq::socks_greeting_encoder_t" = type <{ i64, i64, [257 x i8], [7 x i8] }>

; Function Attrs: mustprogress nounwind uwtable
define void @_ZN3zmq24socks_greeting_encoder_t6encodeERKNS_16socks_greeting_tE(ptr noundef nonnull align 8 dereferenceable(273) %0, ptr noundef nonnull align 8 dereferenceable(264) %1) #0 align 2 {
  %3 = alloca ptr, align 8
  %4 = alloca ptr, align 8
  %5 = alloca ptr, align 8
  %6 = alloca i8, align 1
  store ptr %0, ptr %3, align 8, !tbaa !16
  store ptr %1, ptr %4, align 8, !tbaa !3
  %7 = load ptr, ptr %3, align 8
  call void @llvm.lifetime.start.p0(i64 8, ptr %5) #14
  %8 = getelementptr inbounds nuw %"class.zmq::socks_greeting_encoder_t", ptr %7, i32 0, i32 2
  %9 = getelementptr inbounds [257 x i8], ptr %8, i64 0, i64 0
  store ptr %9, ptr %5, align 8, !tbaa !12
  %10 = load ptr, ptr %5, align 8, !tbaa !12
  %11 = getelementptr inbounds nuw i8, ptr %10, i32 1
  store ptr %11, ptr %5, align 8, !tbaa !12
  store i8 5, ptr %10, align 1, !tbaa !8
  %12 = load ptr, ptr %4, align 8, !tbaa !3
  %13 = getelementptr inbounds nuw %"struct.zmq::socks_greeting_t", ptr %12, i32 0, i32 1
  %14 = load i64, ptr %13, align 8, !tbaa !9
  %15 = trunc i64 %14 to i8
  %16 = load ptr, ptr %5, align 8, !tbaa !12
  %17 = getelementptr inbounds nuw i8, ptr %16, i32 1
  store ptr %17, ptr %5, align 8, !tbaa !12
  store i8 %15, ptr %16, align 1, !tbaa !8
  call void @llvm.lifetime.start.p0(i64 1, ptr %6) #14
  store i8 0, ptr %6, align 1, !tbaa !8
  br label %18

18:                                               ; preds = %35, %2
  %19 = load i8, ptr %6, align 1, !tbaa !8
  %20 = zext i8 %19 to i64
  %21 = load ptr, ptr %4, align 8, !tbaa !3
  %22 = getelementptr inbounds nuw %"struct.zmq::socks_greeting_t", ptr %21, i32 0, i32 1
  %23 = load i64, ptr %22, align 8, !tbaa !9
  %24 = icmp ult i64 %20, %23
  br i1 %24, label %26, label %25

25:                                               ; preds = %18
  call void @llvm.lifetime.end.p0(i64 1, ptr %6) #14
  br label %38

26:                                               ; preds = %18
  %27 = load ptr, ptr %4, align 8, !tbaa !3
  %28 = getelementptr inbounds nuw %"struct.zmq::socks_greeting_t", ptr %27, i32 0, i32 0
  %29 = load i8, ptr %6, align 1, !tbaa !8
  %30 = zext i8 %29 to i64
  %31 = getelementptr inbounds nuw [255 x i8], ptr %28, i64 0, i64 %30
  %32 = load i8, ptr %31, align 1, !tbaa !8
  %33 = load ptr, ptr %5, align 8, !tbaa !12
  %34 = getelementptr inbounds nuw i8, ptr %33, i32 1
  store ptr %34, ptr %5, align 8, !tbaa !12
  store i8 %32, ptr %33, align 1, !tbaa !8
  br label %35

35:                                               ; preds = %26
  %36 = load i8, ptr %6, align 1, !tbaa !8
  %37 = add i8 %36, 1
  store i8 %37, ptr %6, align 1, !tbaa !8
  br label %18, !llvm.loop !21

38:                                               ; preds = %25
  %39 = load ptr, ptr %4, align 8, !tbaa !3
  %40 = getelementptr inbounds nuw %"struct.zmq::socks_greeting_t", ptr %39, i32 0, i32 1
  %41 = load i64, ptr %40, align 8, !tbaa !9
  %42 = add i64 2, %41
  %43 = getelementptr inbounds nuw %"class.zmq::socks_greeting_encoder_t", ptr %7, i32 0, i32 0
  store i64 %42, ptr %43, align 8, !tbaa !18
  %44 = getelementptr inbounds nuw %"class.zmq::socks_greeting_encoder_t", ptr %7, i32 0, i32 1
  store i64 0, ptr %44, align 8, !tbaa !20
  call void @llvm.lifetime.end.p0(i64 8, ptr %5) #14
  ret void
}