; Function Attrs: mustprogress nofree norecurse nosync nounwind memory(argmem: readwrite) uwtable
define void @_ZN3zmq24socks_greeting_encoder_t6encodeERKNS_16socks_greeting_tE(ptr noundef nonnull writeonly align 8 captures(none) dereferenceable(273) initializes((16, 18)) %0, ptr noundef nonnull readonly align 8 captures(none) dereferenceable(264) %1) local_unnamed_addr #1 align 2 {
  %3 = getelementptr inbounds nuw i8, ptr %0, i64 16
  %4 = getelementptr inbounds nuw i8, ptr %0, i64 17
  store i8 5, ptr %3, align 8, !tbaa !8
  %5 = getelementptr inbounds nuw i8, ptr %1, i64 256
  %6 = load i64, ptr %5, align 8, !tbaa !3
  %7 = trunc i64 %6 to i8
  store i8 %7, ptr %4, align 1, !tbaa !8
  %8 = load i64, ptr %5, align 8, !tbaa !3
  %.not = icmp eq i64 %8, 0
  br i1 %.not, label %._crit_edge, label %.lr.ph.preheader

.lr.ph.preheader:                                 ; preds = %2
  %9 = getelementptr inbounds nuw i8, ptr %0, i64 18
  br label %.lr.ph

._crit_edge.loopexit:                             ; preds = %.lr.ph
  %10 = add nuw nsw i64 %18, 2
  br label %._crit_edge

._crit_edge:                                      ; preds = %._crit_edge.loopexit, %2
  %.lcssa = phi i64 [ 2, %2 ], [ %10, %._crit_edge.loopexit ]
  store i64 %.lcssa, ptr %0, align 8, !tbaa !11
  %11 = getelementptr inbounds nuw i8, ptr %0, i64 8
  store i64 0, ptr %11, align 8, !tbaa !13
  ret void

.lr.ph:                                           ; preds = %.lr.ph.preheader, %.lr.ph
  %12 = phi i64 [ %17, %.lr.ph ], [ 0, %.lr.ph.preheader ]
  %.014 = phi i8 [ %16, %.lr.ph ], [ 0, %.lr.ph.preheader ]
  %.01013 = phi ptr [ %15, %.lr.ph ], [ %9, %.lr.ph.preheader ]
  %13 = getelementptr inbounds nuw [255 x i8], ptr %1, i64 0, i64 %12
  %14 = load i8, ptr %13, align 1, !tbaa !8
  %15 = getelementptr inbounds nuw i8, ptr %.01013, i64 1
  store i8 %14, ptr %.01013, align 1, !tbaa !8
  %16 = add i8 %.014, 1
  %17 = zext i8 %16 to i64
  %18 = load i64, ptr %5, align 8, !tbaa !3
  %19 = icmp ugt i64 %18, %17
  br i1 %19, label %.lr.ph, label %._crit_edge.loopexit, !llvm.loop !14
}